; Function Attrs: mustprogress nofree nounwind uwtable
define noundef nonnull align 8 dereferenceable(24) ptr @_ZNK32pxrInternal_v0_24__pxrReserved__8HdVolume22GetBuiltinPrimvarNamesEv(ptr nocapture nonnull readnone align 8 %0) unnamed_addr #6 align 2 {
  %2 = load atomic i8, ptr @_ZGVZNK32pxrInternal_v0_24__pxrReserved__8HdVolume22GetBuiltinPrimvarNamesEvE12primvarNames acquire, align 8
  %3 = icmp eq i8 %2, 0
  br i1 %3, label %4, label %8, !prof !4

4:                                                ; preds = %1
  %5 = tail call i32 @__cxa_guard_acquire(ptr nonnull @_ZGVZNK32pxrInternal_v0_24__pxrReserved__8HdVolume22GetBuiltinPrimvarNamesEvE12primvarNames) #10
  %.not = icmp eq i32 %5, 0
  br i1 %.not, label %8, label %6

6:                                                ; preds = %4
  tail call void @llvm.memset.p0.i64(ptr noundef nonnull align 8 dereferenceable(24) @_ZZNK32pxrInternal_v0_24__pxrReserved__8HdVolume22GetBuiltinPrimvarNamesEvE12primvarNames, i8 0, i64 24, i1 false)
  %7 = tail call i32 @__cxa_atexit(ptr nonnull @_ZNSt6vectorIN32pxrInternal_v0_24__pxrReserved__7TfTokenESaIS1_EED2Ev, ptr nonnull @_ZZNK32pxrInternal_v0_24__pxrReserved__8HdVolume22GetBuiltinPrimvarNamesEvE12primvarNames, ptr nonnull @__dso_handle) #10
  tail call void @__cxa_guard_release(ptr nonnull @_ZGVZNK32pxrInternal_v0_24__pxrReserved__8HdVolume22GetBuiltinPrimvarNamesEvE12primvarNames) #10
  br label %8

8:                                                ; preds = %6, %4, %1
  ret ptr @_ZZNK32pxrInternal_v0_24__pxrReserved__8HdVolume22GetBuiltinPrimvarNamesEvE12primvarNames
}